SF:/home/fernandomarca/git/rust/rust-opentelemetry/src/infra/list_post.rs
FN:12,_RNvXNvXNvNtNtCsd5ZQOKN1kMZ_7app_fmm5infra9list_post1__NtB7_6ParamsNtNtCs7KHHAE1sAde_5serde2de11Deserialize11deserializeNtB2_14___FieldVisitorNtB14_7Visitor9expecting
FN:12,_RINvXNvXNvNtNtCsd5ZQOKN1kMZ_7app_fmm5infra9list_post1__NtB8_6ParamsNtNtCs7KHHAE1sAde_5serde2de11Deserialize11deserializeNtB3_14___FieldVisitorNtB15_7Visitor9visit_u64pEBc_
FN:12,_RINvXNvXNvNtNtCsd5ZQOKN1kMZ_7app_fmm5infra9list_post1__NtB8_6ParamsNtNtCs7KHHAE1sAde_5serde2de11Deserialize11deserializeNtB3_14___FieldVisitorNtB15_7Visitor9visit_strpEBc_
FN:12,_RINvXNvXNvNtNtCsd5ZQOKN1kMZ_7app_fmm5infra9list_post1__NtB8_6ParamsNtNtCs7KHHAE1sAde_5serde2de11Deserialize11deserializeNtB3_14___FieldVisitorNtB15_7Visitor11visit_bytespEBc_
FN:12,_RINvXs_NvXNvNtNtCsd5ZQOKN1kMZ_7app_fmm5infra9list_post1__NtBa_6ParamsNtNtCs7KHHAE1sAde_5serde2de11Deserialize11deserializeNtB5_7___FieldB15_11deserializepEBe_
FN:12,_RNvXs0_NvXNvNtNtCsd5ZQOKN1kMZ_7app_fmm5infra9list_post1__NtBa_6ParamsNtNtCs7KHHAE1sAde_5serde2de11Deserialize11deserializeNtB5_9___VisitorNtB17_7Visitor9expecting
FN:12,_RINvXs0_NvXNvNtNtCsd5ZQOKN1kMZ_7app_fmm5infra9list_post1__NtBb_6ParamsNtNtCs7KHHAE1sAde_5serde2de11Deserialize11deserializeNtB6_9___VisitorNtB18_7Visitor9visit_seqpEBf_
FN:12,_RINvXs0_NvXNvNtNtCsd5ZQOKN1kMZ_7app_fmm5infra9list_post1__NtBb_6ParamsNtNtCs7KHHAE1sAde_5serde2de11Deserialize11deserializeNtB6_9___VisitorNtB18_7Visitor9visit_mappEBf_
FN:18,_RNvXNvXNvNtNtCsd5ZQOKN1kMZ_7app_fmm5infra9list_posts_1__NtB7_17PostListPresenterNtNtCs7KHHAE1sAde_5serde2de11Deserialize11deserializeNtB2_14___FieldVisitorNtB1i_7Visitor9expecting
FN:18,_RINvXNvXNvNtNtCsd5ZQOKN1kMZ_7app_fmm5infra9list_posts_1__NtB8_17PostListPresenterNtNtCs7KHHAE1sAde_5serde2de11Deserialize11deserializeNtB3_14___FieldVisitorNtB1j_7Visitor9visit_u64pEBc_
FN:18,_RINvXNvXNvNtNtCsd5ZQOKN1kMZ_7app_fmm5infra9list_posts_1__NtB8_17PostListPresenterNtNtCs7KHHAE1sAde_5serde2de11Deserialize11deserializeNtB3_14___FieldVisitorNtB1j_7Visitor9visit_strpEBc_
FN:18,_RINvXNvXNvNtNtCsd5ZQOKN1kMZ_7app_fmm5infra9list_posts_1__NtB8_17PostListPresenterNtNtCs7KHHAE1sAde_5serde2de11Deserialize11deserializeNtB3_14___FieldVisitorNtB1j_7Visitor11visit_bytespEBc_
FN:18,_RINvXs_NvXNvNtNtCsd5ZQOKN1kMZ_7app_fmm5infra9list_posts_1__NtBa_17PostListPresenterNtNtCs7KHHAE1sAde_5serde2de11Deserialize11deserializeNtB5_7___FieldB1j_11deserializepEBe_
FN:18,_RNvXs0_NvXNvNtNtCsd5ZQOKN1kMZ_7app_fmm5infra9list_posts_1__NtBa_17PostListPresenterNtNtCs7KHHAE1sAde_5serde2de11Deserialize11deserializeNtB5_9___VisitorNtB1l_7Visitor9expecting
FN:18,_RINvXs0_NvXNvNtNtCsd5ZQOKN1kMZ_7app_fmm5infra9list_posts_1__NtBb_17PostListPresenterNtNtCs7KHHAE1sAde_5serde2de11Deserialize11deserializeNtB6_9___VisitorNtB1m_7Visitor9visit_seqpEBf_
FN:18,_RINvXs0_NvXNvNtNtCsd5ZQOKN1kMZ_7app_fmm5infra9list_posts_1__NtBb_17PostListPresenterNtNtCs7KHHAE1sAde_5serde2de11Deserialize11deserializeNtB6_9___VisitorNtB1m_7Visitor9visit_mappEBf_
FN:24,_RNvXs0_NtNtCsd5ZQOKN1kMZ_7app_fmm5infra9list_postNtB5_4listNtNtCshod4NlCuhm8_9actix_web7service18HttpServiceFactory8register
FN:25,_RNvNvXs0_NtNtCsd5ZQOKN1kMZ_7app_fmm5infra9list_postNtB7_4listNtNtCshod4NlCuhm8_9actix_web7service18HttpServiceFactory8register4list
FN:25,_RNCNvNvXs0_NtNtCsd5ZQOKN1kMZ_7app_fmm5infra9list_postNtB9_4listNtNtCshod4NlCuhm8_9actix_web7service18HttpServiceFactory8register4list0Bd_
FNDA:0,_RNvXNvXNvNtNtCsd5ZQOKN1kMZ_7app_fmm5infra9list_post1__NtB7_6ParamsNtNtCs7KHHAE1sAde_5serde2de11Deserialize11deserializeNtB2_14___FieldVisitorNtB14_7Visitor9expecting
FNDA:0,_RINvXNvXNvNtNtCsd5ZQOKN1kMZ_7app_fmm5infra9list_post1__NtB8_6ParamsNtNtCs7KHHAE1sAde_5serde2de11Deserialize11deserializeNtB3_14___FieldVisitorNtB15_7Visitor9visit_u64pEBc_
FNDA:0,_RINvXNvXNvNtNtCsd5ZQOKN1kMZ_7app_fmm5infra9list_post1__NtB8_6ParamsNtNtCs7KHHAE1sAde_5serde2de11Deserialize11deserializeNtB3_14___FieldVisitorNtB15_7Visitor9visit_strpEBc_
FNDA:0,_RINvXNvXNvNtNtCsd5ZQOKN1kMZ_7app_fmm5infra9list_post1__NtB8_6ParamsNtNtCs7KHHAE1sAde_5serde2de11Deserialize11deserializeNtB3_14___FieldVisitorNtB15_7Visitor11visit_bytespEBc_
FNDA:0,_RINvXs_NvXNvNtNtCsd5ZQOKN1kMZ_7app_fmm5infra9list_post1__NtBa_6ParamsNtNtCs7KHHAE1sAde_5serde2de11Deserialize11deserializeNtB5_7___FieldB15_11deserializepEBe_
FNDA:0,_RNvXs0_NvXNvNtNtCsd5ZQOKN1kMZ_7app_fmm5infra9list_post1__NtBa_6ParamsNtNtCs7KHHAE1sAde_5serde2de11Deserialize11deserializeNtB5_9___VisitorNtB17_7Visitor9expecting
FNDA:0,_RINvXs0_NvXNvNtNtCsd5ZQOKN1kMZ_7app_fmm5infra9list_post1__NtBb_6ParamsNtNtCs7KHHAE1sAde_5serde2de11Deserialize11deserializeNtB6_9___VisitorNtB18_7Visitor9visit_seqpEBf_
FNDA:0,_RINvXs0_NvXNvNtNtCsd5ZQOKN1kMZ_7app_fmm5infra9list_post1__NtBb_6ParamsNtNtCs7KHHAE1sAde_5serde2de11Deserialize11deserializeNtB6_9___VisitorNtB18_7Visitor9visit_mappEBf_
FNDA:0,_RNvXNvXNvNtNtCsd5ZQOKN1kMZ_7app_fmm5infra9list_posts_1__NtB7_17PostListPresenterNtNtCs7KHHAE1sAde_5serde2de11Deserialize11deserializeNtB2_14___FieldVisitorNtB1i_7Visitor9expecting
FNDA:0,_RINvXNvXNvNtNtCsd5ZQOKN1kMZ_7app_fmm5infra9list_posts_1__NtB8_17PostListPresenterNtNtCs7KHHAE1sAde_5serde2de11Deserialize11deserializeNtB3_14___FieldVisitorNtB1j_7Visitor9visit_u64pEBc_
FNDA:0,_RINvXNvXNvNtNtCsd5ZQOKN1kMZ_7app_fmm5infra9list_posts_1__NtB8_17PostListPresenterNtNtCs7KHHAE1sAde_5serde2de11Deserialize11deserializeNtB3_14___FieldVisitorNtB1j_7Visitor9visit_strpEBc_
FNDA:0,_RINvXNvXNvNtNtCsd5ZQOKN1kMZ_7app_fmm5infra9list_posts_1__NtB8_17PostListPresenterNtNtCs7KHHAE1sAde_5serde2de11Deserialize11deserializeNtB3_14___FieldVisitorNtB1j_7Visitor11visit_bytespEBc_
FNDA:0,_RINvXs_NvXNvNtNtCsd5ZQOKN1kMZ_7app_fmm5infra9list_posts_1__NtBa_17PostListPresenterNtNtCs7KHHAE1sAde_5serde2de11Deserialize11deserializeNtB5_7___FieldB1j_11deserializepEBe_
FNDA:0,_RNvXs0_NvXNvNtNtCsd5ZQOKN1kMZ_7app_fmm5infra9list_posts_1__NtBa_17PostListPresenterNtNtCs7KHHAE1sAde_5serde2de11Deserialize11deserializeNtB5_9___VisitorNtB1l_7Visitor9expecting
FNDA:0,_RINvXs0_NvXNvNtNtCsd5ZQOKN1kMZ_7app_fmm5infra9list_posts_1__NtBb_17PostListPresenterNtNtCs7KHHAE1sAde_5serde2de11Deserialize11deserializeNtB6_9___VisitorNtB1m_7Visitor9visit_seqpEBf_
FNDA:0,_RINvXs0_NvXNvNtNtCsd5ZQOKN1kMZ_7app_fmm5infra9list_posts_1__NtBb_17PostListPresenterNtNtCs7KHHAE1sAde_5serde2de11Deserialize11deserializeNtB6_9___VisitorNtB1m_7Visitor9visit_mappEBf_
FNDA:0,_RNvXs0_NtNtCsd5ZQOKN1kMZ_7app_fmm5infra9list_postNtB5_4listNtNtCshod4NlCuhm8_9actix_web7service18HttpServiceFactory8register
FNDA:0,_RNvNvXs0_NtNtCsd5ZQOKN1kMZ_7app_fmm5infra9list_postNtB7_4listNtNtCshod4NlCuhm8_9actix_web7service18HttpServiceFactory8register4list
FNDA:0,_RNCNvNvXs0_NtNtCsd5ZQOKN1kMZ_7app_fmm5infra9list_postNtB9_4listNtNtCshod4NlCuhm8_9actix_web7service18HttpServiceFactory8register4list0Bd_
FNF:5
FNH:0
DA:12,0
DA:18,0
DA:24,0
DA:25,0
DA:26,0
DA:27,0
DA:28,0
DA:29,0
DA:30,0
DA:31,0
DA:32,0
DA:34,0
DA:35,0
DA:36,0
DA:37,0
DA:38,0
DA:39,0
DA:40,0
DA:41,0
DA:42,0
BRF:0
BRH:0
LF:21
LH:0
end_of_record
SF:/home/fernandomarca/git/rust/rust-opentelemetry/src/infra/mutation.rs
FN:12,_RNvMNtNtCsd5ZQOKN1kMZ_7app_fmm5infra8mutationNtB2_8Mutation11create_post
FN:15,_RNCNvMNtNtCsd5ZQOKN1kMZ_7app_fmm5infra8mutationNtB4_8Mutation11create_post0B8_
FN:23,_RNCNCNvMNtNtCsd5ZQOKN1kMZ_7app_fmm5infra8mutationNtB6_8Mutation11create_post00Ba_
FNDA:0,_RNvMNtNtCsd5ZQOKN1kMZ_7app_fmm5infra8mutationNtB2_8Mutation11create_post
FNDA:0,_RNCNvMNtNtCsd5ZQOKN1kMZ_7app_fmm5infra8mutationNtB4_8Mutation11create_post0B8_
FNDA:0,_RNCNCNvMNtNtCsd5ZQOKN1kMZ_7app_fmm5infra8mutationNtB6_8Mutation11create_post00Ba_
FNF:3
FNH:0
DA:12,0
DA:13,0
DA:14,0
DA:15,0
DA:16,0
DA:17,0
DA:18,0
DA:19,0
DA:20,0
DA:21,0
DA:22,0
DA:23,0
DA:24,0
BRF:0
BRH:0
LF:15
LH:0
end_of_record
SF:/home/fernandomarca/git/rust/rust-opentelemetry/src/infra/post.rs
FN:4,_RNvXsi_NtNtCsd5ZQOKN1kMZ_7app_fmm5infra4postNtB5_10ColumnIterNtNtCsaYZPK01V26L_4core3fmt5Debug3fmt
FN:4,_RNvMsj_NtNtCsd5ZQOKN1kMZ_7app_fmm5infra4postNtB5_10ColumnIter3get
FN:4,_RNvXsk_NtNtCsd5ZQOKN1kMZ_7app_fmm5infra4postNtB5_6ColumnNtCsbuseXva2CAt_5strum16IntoEnumIterator4iter
FN:4,_RNvXsl_NtNtCsd5ZQOKN1kMZ_7app_fmm5infra4postNtB5_10ColumnIterNtNtNtNtCsaYZPK01V26L_4core4iter6traits8iterator8Iterator4next
FN:4,_RNvXsl_NtNtCsd5ZQOKN1kMZ_7app_fmm5infra4postNtB5_10ColumnIterNtNtNtNtCsaYZPK01V26L_4core4iter6traits8iterator8Iterator9size_hint
FN:4,_RNvXsl_NtNtCsd5ZQOKN1kMZ_7app_fmm5infra4postNtB5_10ColumnIterNtNtNtNtCsaYZPK01V26L_4core4iter6traits8iterator8Iterator3nth
FN:4,_RNvXsm_NtNtCsd5ZQOKN1kMZ_7app_fmm5infra4postNtB5_10ColumnIterNtNtNtNtCsaYZPK01V26L_4core4iter6traits10exact_size17ExactSizeIterator3len
FN:4,_RNvXsn_NtNtCsd5ZQOKN1kMZ_7app_fmm5infra4postNtB5_10ColumnIterNtNtNtNtCsaYZPK01V26L_4core4iter6traits12double_ended19DoubleEndedIterator9next_back
FN:4,_RNvXso_NtNtCsd5ZQOKN1kMZ_7app_fmm5infra4postNtB5_10ColumnIterNtNtCsaYZPK01V26L_4core5clone5Clone5clone
FN:4,_RNvXsD_NtNtCsd5ZQOKN1kMZ_7app_fmm5infra4postNtB5_14PrimaryKeyIterNtNtCsaYZPK01V26L_4core3fmt5Debug3fmt
FN:4,_RNvMsE_NtNtCsd5ZQOKN1kMZ_7app_fmm5infra4postNtB5_14PrimaryKeyIter3get
FN:4,_RNvXsF_NtNtCsd5ZQOKN1kMZ_7app_fmm5infra4postNtB5_10PrimaryKeyNtCsbuseXva2CAt_5strum16IntoEnumIterator4iter
FN:4,_RNvXsG_NtNtCsd5ZQOKN1kMZ_7app_fmm5infra4postNtB5_14PrimaryKeyIterNtNtNtNtCsaYZPK01V26L_4core4iter6traits8iterator8Iterator4next
FN:4,_RNvXsG_NtNtCsd5ZQOKN1kMZ_7app_fmm5infra4postNtB5_14PrimaryKeyIterNtNtNtNtCsaYZPK01V26L_4core4iter6traits8iterator8Iterator9size_hint
FN:4,_RNvXsG_NtNtCsd5ZQOKN1kMZ_7app_fmm5infra4postNtB5_14PrimaryKeyIterNtNtNtNtCsaYZPK01V26L_4core4iter6traits8iterator8Iterator3nth
FN:4,_RNvXsH_NtNtCsd5ZQOKN1kMZ_7app_fmm5infra4postNtB5_14PrimaryKeyIterNtNtNtNtCsaYZPK01V26L_4core4iter6traits10exact_size17ExactSizeIterator3len
FN:4,_RNvXsI_NtNtCsd5ZQOKN1kMZ_7app_fmm5infra4postNtB5_14PrimaryKeyIterNtNtNtNtCsaYZPK01V26L_4core4iter6traits12double_ended19DoubleEndedIterator9next_back
FN:4,_RNvXsJ_NtNtCsd5ZQOKN1kMZ_7app_fmm5infra4postNtB5_14PrimaryKeyIterNtNtCsaYZPK01V26L_4core5clone5Clone5clone
FN:4,_RNvXNvXNvNtNtCsd5ZQOKN1kMZ_7app_fmm5infra4post1__NtB7_5ModelNtNtCs7KHHAE1sAde_5serde2de11Deserialize11deserializeNtB2_14___FieldVisitorNtBY_7Visitor9expecting
FN:4,_RINvXNvXNvNtNtCsd5ZQOKN1kMZ_7app_fmm5infra4post1__NtB8_5ModelNtNtCs7KHHAE1sAde_5serde2de11Deserialize11deserializeNtB3_14___FieldVisitorNtBZ_7Visitor9visit_u64pEBc_
FN:4,_RINvXNvXNvNtNtCsd5ZQOKN1kMZ_7app_fmm5infra4post1__NtB8_5ModelNtNtCs7KHHAE1sAde_5serde2de11Deserialize11deserializeNtB3_14___FieldVisitorNtBZ_7Visitor9visit_strpEBc_
FN:4,_RINvXNvXNvNtNtCsd5ZQOKN1kMZ_7app_fmm5infra4post1__NtB8_5ModelNtNtCs7KHHAE1sAde_5serde2de11Deserialize11deserializeNtB3_14___FieldVisitorNtBZ_7Visitor11visit_bytespEBc_
FN:4,_RINvXs_NvXNvNtNtCsd5ZQOKN1kMZ_7app_fmm5infra4post1__NtBa_5ModelNtNtCs7KHHAE1sAde_5serde2de11Deserialize11deserializeNtB5_7___FieldBZ_11deserializepEBe_
FN:4,_RNvXs0_NvXNvNtNtCsd5ZQOKN1kMZ_7app_fmm5infra4post1__NtBa_5ModelNtNtCs7KHHAE1sAde_5serde2de11Deserialize11deserializeNtB5_9___VisitorNtB11_7Visitor9expecting
FN:4,_RINvXs0_NvXNvNtNtCsd5ZQOKN1kMZ_7app_fmm5infra4post1__NtBb_5ModelNtNtCs7KHHAE1sAde_5serde2de11Deserialize11deserializeNtB6_9___VisitorNtB12_7Visitor9visit_seqpEBf_
FN:4,_RINvXs0_NvXNvNtNtCsd5ZQOKN1kMZ_7app_fmm5infra4post1__NtBb_5ModelNtNtCs7KHHAE1sAde_5serde2de11Deserialize11deserializeNtB6_9___VisitorNtB12_7Visitor9visit_mappEBf_
FN:15,_RNvXsU_NtNtCsd5ZQOKN1kMZ_7app_fmm5infra4postNtB5_12RelationIterNtNtCsaYZPK01V26L_4core3fmt5Debug3fmt
FN:15,_RNvMsV_NtNtCsd5ZQOKN1kMZ_7app_fmm5infra4postNtB5_12RelationIter3get
FN:15,_RNvXsW_NtNtCsd5ZQOKN1kMZ_7app_fmm5infra4postNtB5_8RelationNtCsbuseXva2CAt_5strum16IntoEnumIterator4iter
FN:15,_RNvXsX_NtNtCsd5ZQOKN1kMZ_7app_fmm5infra4postNtB5_12RelationIterNtNtNtNtCsaYZPK01V26L_4core4iter6traits8iterator8Iterator4next
FN:15,_RNvXsX_NtNtCsd5ZQOKN1kMZ_7app_fmm5infra4postNtB5_12RelationIterNtNtNtNtCsaYZPK01V26L_4core4iter6traits8iterator8Iterator9size_hint
FN:15,_RNvXsX_NtNtCsd5ZQOKN1kMZ_7app_fmm5infra4postNtB5_12RelationIterNtNtNtNtCsaYZPK01V26L_4core4iter6traits8iterator8Iterator3nth
FN:15,_RNvXsY_NtNtCsd5ZQOKN1kMZ_7app_fmm5infra4postNtB5_12RelationIterNtNtNtNtCsaYZPK01V26L_4core4iter6traits10exact_size17ExactSizeIterator3len
FN:15,_RNvXsZ_NtNtCsd5ZQOKN1kMZ_7app_fmm5infra4postNtB5_12RelationIterNtNtNtNtCsaYZPK01V26L_4core4iter6traits12double_ended19DoubleEndedIterator9next_back
FN:15,_RNvXs10_NtNtCsd5ZQOKN1kMZ_7app_fmm5infra4postNtB6_12RelationIterNtNtCsaYZPK01V26L_4core5clone5Clone5clone
FNDA:0,_RNvXsi_NtNtCsd5ZQOKN1kMZ_7app_fmm5infra4postNtB5_10ColumnIterNtNtCsaYZPK01V26L_4core3fmt5Debug3fmt
FNDA:0,_RNvMsj_NtNtCsd5ZQOKN1kMZ_7app_fmm5infra4postNtB5_10ColumnIter3get
FNDA:0,_RNvXsk_NtNtCsd5ZQOKN1kMZ_7app_fmm5infra4postNtB5_6ColumnNtCsbuseXva2CAt_5strum16IntoEnumIterator4iter
FNDA:0,_RNvXsl_NtNtCsd5ZQOKN1kMZ_7app_fmm5infra4postNtB5_10ColumnIterNtNtNtNtCsaYZPK01V26L_4core4iter6traits8iterator8Iterator4next
FNDA:0,_RNvXsl_NtNtCsd5ZQOKN1kMZ_7app_fmm5infra4postNtB5_10ColumnIterNtNtNtNtCsaYZPK01V26L_4core4iter6traits8iterator8Iterator9size_hint
FNDA:0,_RNvXsl_NtNtCsd5ZQOKN1kMZ_7app_fmm5infra4postNtB5_10ColumnIterNtNtNtNtCsaYZPK01V26L_4core4iter6traits8iterator8Iterator3nth
FNDA:0,_RNvXsm_NtNtCsd5ZQOKN1kMZ_7app_fmm5infra4postNtB5_10ColumnIterNtNtNtNtCsaYZPK01V26L_4core4iter6traits10exact_size17ExactSizeIterator3len
FNDA:0,_RNvXsn_NtNtCsd5ZQOKN1kMZ_7app_fmm5infra4postNtB5_10ColumnIterNtNtNtNtCsaYZPK01V26L_4core4iter6traits12double_ended19DoubleEndedIterator9next_back
FNDA:0,_RNvXso_NtNtCsd5ZQOKN1kMZ_7app_fmm5infra4postNtB5_10ColumnIterNtNtCsaYZPK01V26L_4core5clone5Clone5clone
FNDA:0,_RNvXsD_NtNtCsd5ZQOKN1kMZ_7app_fmm5infra4postNtB5_14PrimaryKeyIterNtNtCsaYZPK01V26L_4core3fmt5Debug3fmt
FNDA:0,_RNvMsE_NtNtCsd5ZQOKN1kMZ_7app_fmm5infra4postNtB5_14PrimaryKeyIter3get
FNDA:0,_RNvXsF_NtNtCsd5ZQOKN1kMZ_7app_fmm5infra4postNtB5_10PrimaryKeyNtCsbuseXva2CAt_5strum16IntoEnumIterator4iter
FNDA:0,_RNvXsG_NtNtCsd5ZQOKN1kMZ_7app_fmm5infra4postNtB5_14PrimaryKeyIterNtNtNtNtCsaYZPK01V26L_4core4iter6traits8iterator8Iterator4next
FNDA:0,_RNvXsG_NtNtCsd5ZQOKN1kMZ_7app_fmm5infra4postNtB5_14PrimaryKeyIterNtNtNtNtCsaYZPK01V26L_4core4iter6traits8iterator8Iterator9size_hint
FNDA:0,_RNvXsG_NtNtCsd5ZQOKN1kMZ_7app_fmm5infra4postNtB5_14PrimaryKeyIterNtNtNtNtCsaYZPK01V26L_4core4iter6traits8iterator8Iterator3nth
FNDA:0,_RNvXsH_NtNtCsd5ZQOKN1kMZ_7app_fmm5infra4postNtB5_14PrimaryKeyIterNtNtNtNtCsaYZPK01V26L_4core4iter6traits10exact_size17ExactSizeIterator3len
FNDA:0,_RNvXsI_NtNtCsd5ZQOKN1kMZ_7app_fmm5infra4postNtB5_14PrimaryKeyIterNtNtNtNtCsaYZPK01V26L_4core4iter6traits12double_ended19DoubleEndedIterator9next_back
FNDA:0,_RNvXsJ_NtNtCsd5ZQOKN1kMZ_7app_fmm5infra4postNtB5_14PrimaryKeyIterNtNtCsaYZPK01V26L_4core5clone5Clone5clone
FNDA:0,_RNvXNvXNvNtNtCsd5ZQOKN1kMZ_7app_fmm5infra4post1__NtB7_5ModelNtNtCs7KHHAE1sAde_5serde2de11Deserialize11deserializeNtB2_14___FieldVisitorNtBY_7Visitor9expecting
FNDA:0,_RINvXNvXNvNtNtCsd5ZQOKN1kMZ_7app_fmm5infra4post1__NtB8_5ModelNtNtCs7KHHAE1sAde_5serde2de11Deserialize11deserializeNtB3_14___FieldVisitorNtBZ_7Visitor9visit_u64pEBc_
FNDA:0,_RINvXNvXNvNtNtCsd5ZQOKN1kMZ_7app_fmm5infra4post1__NtB8_5ModelNtNtCs7KHHAE1sAde_5serde2de11Deserialize11deserializeNtB3_14___FieldVisitorNtBZ_7Visitor9visit_strpEBc_
FNDA:0,_RINvXNvXNvNtNtCsd5ZQOKN1kMZ_7app_fmm5infra4post1__NtB8_5ModelNtNtCs7KHHAE1sAde_5serde2de11Deserialize11deserializeNtB3_14___FieldVisitorNtBZ_7Visitor11visit_bytespEBc_
FNDA:0,_RINvXs_NvXNvNtNtCsd5ZQOKN1kMZ_7app_fmm5infra4post1__NtBa_5ModelNtNtCs7KHHAE1sAde_5serde2de11Deserialize11deserializeNtB5_7___FieldBZ_11deserializepEBe_
FNDA:0,_RNvXs0_NvXNvNtNtCsd5ZQOKN1kMZ_7app_fmm5infra4post1__NtBa_5ModelNtNtCs7KHHAE1sAde_5serde2de11Deserialize11deserializeNtB5_9___VisitorNtB11_7Visitor9expecting
FNDA:0,_RINvXs0_NvXNvNtNtCsd5ZQOKN1kMZ_7app_fmm5infra4post1__NtBb_5ModelNtNtCs7KHHAE1sAde_5serde2de11Deserialize11deserializeNtB6_9___VisitorNtB12_7Visitor9visit_seqpEBf_
FNDA:0,_RINvXs0_NvXNvNtNtCsd5ZQOKN1kMZ_7app_fmm5infra4post1__NtBb_5ModelNtNtCs7KHHAE1sAde_5serde2de11Deserialize11deserializeNtB6_9___VisitorNtB12_7Visitor9visit_mappEBf_
FNDA:0,_RNvXsU_NtNtCsd5ZQOKN1kMZ_7app_fmm5infra4postNtB5_12RelationIterNtNtCsaYZPK01V26L_4core3fmt5Debug3fmt
FNDA:0,_RNvMsV_NtNtCsd5ZQOKN1kMZ_7app_fmm5infra4postNtB5_12RelationIter3get
FNDA:0,_RNvXsW_NtNtCsd5ZQOKN1kMZ_7app_fmm5infra4postNtB5_8RelationNtCsbuseXva2CAt_5strum16IntoEnumIterator4iter
FNDA:0,_RNvXsX_NtNtCsd5ZQOKN1kMZ_7app_fmm5infra4postNtB5_12RelationIterNtNtNtNtCsaYZPK01V26L_4core4iter6traits8iterator8Iterator4next
FNDA:0,_RNvXsX_NtNtCsd5ZQOKN1kMZ_7app_fmm5infra4postNtB5_12RelationIterNtNtNtNtCsaYZPK01V26L_4core4iter6traits8iterator8Iterator9size_hint
FNDA:0,_RNvXsX_NtNtCsd5ZQOKN1kMZ_7app_fmm5infra4postNtB5_12RelationIterNtNtNtNtCsaYZPK01V26L_4core4iter6traits8iterator8Iterator3nth
FNDA:0,_RNvXsY_NtNtCsd5ZQOKN1kMZ_7app_fmm5infra4postNtB5_12RelationIterNtNtNtNtCsaYZPK01V26L_4core4iter6traits10exact_size17ExactSizeIterator3len
FNDA:0,_RNvXsZ_NtNtCsd5ZQOKN1kMZ_7app_fmm5infra4postNtB5_12RelationIterNtNtNtNtCsaYZPK01V26L_4core4iter6traits12double_ended19DoubleEndedIterator9next_back
FNDA:0,_RNvXs10_NtNtCsd5ZQOKN1kMZ_7app_fmm5infra4postNtB6_12RelationIterNtNtCsaYZPK01V26L_4core5clone5Clone5clone
FNF:3
FNH:0
DA:4,0
DA:15,0
BRF:0
BRH:0
LF:3
LH:0
end_of_record
SF:/home/fernandomarca/git/rust/rust-opentelemetry/src/infra/query.rs
FN:9,_RNvMNtNtCsd5ZQOKN1kMZ_7app_fmm5infra5queryNtB2_5Query15find_post_by_id
FN:9,_RNCNvMNtNtCsd5ZQOKN1kMZ_7app_fmm5infra5queryNtB4_5Query15find_post_by_id0B8_
FN:13,_RNvMNtNtCsd5ZQOKN1kMZ_7app_fmm5infra5queryNtB2_5Query18find_posts_in_page
FN:17,_RNCNvMNtNtCsd5ZQOKN1kMZ_7app_fmm5infra5queryNtB4_5Query18find_posts_in_page0B8_
FN:25,_RNCNCNvMNtNtCsd5ZQOKN1kMZ_7app_fmm5infra5queryNtB6_5Query18find_posts_in_page00Ba_
FNDA:0,_RNvMNtNtCsd5ZQOKN1kMZ_7app_fmm5infra5queryNtB2_5Query15find_post_by_id
FNDA:0,_RNCNvMNtNtCsd5ZQOKN1kMZ_7app_fmm5infra5queryNtB4_5Query15find_post_by_id0B8_
FNDA:0,_RNvMNtNtCsd5ZQOKN1kMZ_7app_fmm5infra5queryNtB2_5Query18find_posts_in_page
FNDA:0,_RNCNvMNtNtCsd5ZQOKN1kMZ_7app_fmm5infra5queryNtB4_5Query18find_posts_in_page0B8_
FNDA:0,_RNCNCNvMNtNtCsd5ZQOKN1kMZ_7app_fmm5infra5queryNtB6_5Query18find_posts_in_page00Ba_
FNF:5
FNH:0
DA:9,0
DA:10,0
DA:11,0
DA:13,0
DA:14,0
DA:15,0
DA:16,0
DA:17,0
DA:18,0
DA:19,0
DA:20,0
DA:21,0
DA:22,0
DA:25,0
DA:26,0
BRF:0
BRH:0
LF:18
LH:0
end_of_record
SF:/home/fernandomarca/git/rust/rust-opentelemetry/src/infra/tracer.rs
FN:145,_RNvNtNtNtCsd5ZQOKN1kMZ_7app_fmm5infra6tracer5testss_14teste_resource
FN:33,_RNvNtNtCsd5ZQOKN1kMZ_7app_fmm5infra6tracer11init_tracer
FN:50,_RNvNtNtCsd5ZQOKN1kMZ_7app_fmm5infra6tracer23init_tracing_subscriber
FN:68,_RNvXNtNtCsd5ZQOKN1kMZ_7app_fmm5infra6tracerNtB2_9OtelGuardNtNtNtCsaYZPK01V26L_4core3ops4drop4Drop4drop
FN:77,_RNvNtNtCsd5ZQOKN1kMZ_7app_fmm5infra6tracer19init_meter_provider
FN:98,_RNCNvNtNtCsd5ZQOKN1kMZ_7app_fmm5infra6tracer19init_meter_provider0B7_
FN:111,_RNCNvNtNtCsd5ZQOKN1kMZ_7app_fmm5infra6tracer19init_meter_providers_0B7_
FN:23,_RNvNtNtCsd5ZQOKN1kMZ_7app_fmm5infra6tracer8resource
FNDA:1,_RNvNtNtNtCsd5ZQOKN1kMZ_7app_fmm5infra6tracer5testss_14teste_resource
FNDA:0,_RNvNtNtCsd5ZQOKN1kMZ_7app_fmm5infra6tracer11init_tracer
FNDA:0,_RNvNtNtCsd5ZQOKN1kMZ_7app_fmm5infra6tracer23init_tracing_subscriber
FNDA:0,_RNvXNtNtCsd5ZQOKN1kMZ_7app_fmm5infra6tracerNtB2_9OtelGuardNtNtNtCsaYZPK01V26L_4core3ops4drop4Drop4drop
FNDA:0,_RNvNtNtCsd5ZQOKN1kMZ_7app_fmm5infra6tracer19init_meter_provider
FNDA:0,_RNCNvNtNtCsd5ZQOKN1kMZ_7app_fmm5infra6tracer19init_meter_provider0B7_
FNDA:0,_RNCNvNtNtCsd5ZQOKN1kMZ_7app_fmm5infra6tracer19init_meter_providers_0B7_
FNDA:1,_RNvNtNtCsd5ZQOKN1kMZ_7app_fmm5infra6tracer8resource
FNF:8
FNH:2
DA:23,1
DA:24,1
DA:25,1
DA:26,1
DA:27,1
DA:28,1
DA:29,1
DA:30,1
DA:31,1
DA:32,1
DA:33,0
DA:34,0
DA:35,0
DA:36,0
DA:37,0
DA:38,0
DA:39,0
DA:40,0
DA:41,0
DA:42,0
DA:43,0
DA:44,0
DA:45,0
DA:46,0
DA:47,0
DA:48,0
DA:50,0
DA:51,0
DA:52,0
DA:53,0
DA:54,0
DA:55,0
DA:56,0
DA:57,0
DA:58,0
DA:59,0
DA:60,0
DA:61,0
DA:68,0
DA:69,0
DA:70,0
DA:71,0
DA:72,0
DA:73,0
DA:77,0
DA:78,0
DA:79,0
DA:80,0
DA:81,0
DA:82,0
DA:83,0
DA:84,0
DA:85,0
DA:86,0
DA:87,0
DA:88,0
DA:89,0
DA:90,0
DA:91,0
DA:92,0
DA:93,0
DA:94,0
DA:95,0
DA:96,0
DA:97,0
DA:98,0
DA:99,0
DA:100,0
DA:101,0
DA:102,0
DA:103,0
DA:104,0
DA:106,0
DA:108,0
DA:111,0
DA:112,0
DA:113,0
DA:114,0
DA:115,0
DA:116,0
DA:117,0
DA:118,0
DA:119,0
DA:120,0
DA:122,0
DA:124,0
DA:126,0
DA:127,0
DA:128,0
DA:129,0
DA:130,0
DA:131,0
DA:132,0
DA:133,0
DA:134,0
DA:135,0
DA:136,0
DA:137,0
DA:145,1
DA:146,1
DA:147,1
DA:148,1
DA:149,1
DA:150,1
DA:151,1
DA:152,1
DA:153,1
DA:154,1
DA:155,1
DA:156,1
BRF:0
BRH:0
LF:112
LH:22
end_of_record
SF:/home/fernandomarca/git/rust/rust-opentelemetry/src/main.rs
FN:32,_RNvCsd5ZQOKN1kMZ_7app_fmm3foo
FN:32,_RNCNvCsd5ZQOKN1kMZ_7app_fmm3foo0B3_
FN:32,_RNCNCNvCsd5ZQOKN1kMZ_7app_fmm3foo00B5_
FN:34,_RNCNCNCNvCsd5ZQOKN1kMZ_7app_fmm3foo000B7_
FN:41,_RNCNCNCNvCsd5ZQOKN1kMZ_7app_fmm3foo00s_0B7_
FN:44,_RNvCsd5ZQOKN1kMZ_7app_fmm4main
FN:44,_RNCNvCsd5ZQOKN1kMZ_7app_fmm4main0B3_
FN:86,_RNCNCNvCsd5ZQOKN1kMZ_7app_fmm4main00B5_
FN:91,_RNCNCNCNvCsd5ZQOKN1kMZ_7app_fmm4main000B7_
FN:94,_RNCNCNCNCNvCsd5ZQOKN1kMZ_7app_fmm4main0000B9_
FN:118,_RNvXs0_Csd5ZQOKN1kMZ_7app_fmmNtB5_5helloNtNtCshod4NlCuhm8_9actix_web7service18HttpServiceFactory8register
FN:119,_RNvNvXs0_Csd5ZQOKN1kMZ_7app_fmmNtB7_5helloNtNtCshod4NlCuhm8_9actix_web7service18HttpServiceFactory8register5hello
FN:119,_RNCNvNvXs0_Csd5ZQOKN1kMZ_7app_fmmNtB9_5helloNtNtCshod4NlCuhm8_9actix_web7service18HttpServiceFactory8register5hello0B9_
FN:123,_RNvXNvXNvCsd5ZQOKN1kMZ_7app_fmm1__NtB7_17CreatePostRequestNtNtCs7KHHAE1sAde_5serde2de11Deserialize11deserializeNtB2_14___FieldVisitorNtBW_7Visitor9expecting
FN:123,_RINvXNvXNvCsd5ZQOKN1kMZ_7app_fmm1__NtB8_17CreatePostRequestNtNtCs7KHHAE1sAde_5serde2de11Deserialize11deserializeNtB3_14___FieldVisitorNtBX_7Visitor9visit_u64pEB8_
FN:123,_RINvXNvXNvCsd5ZQOKN1kMZ_7app_fmm1__NtB8_17CreatePostRequestNtNtCs7KHHAE1sAde_5serde2de11Deserialize11deserializeNtB3_14___FieldVisitorNtBX_7Visitor9visit_strpEB8_
FN:123,_RINvXNvXNvCsd5ZQOKN1kMZ_7app_fmm1__NtB8_17CreatePostRequestNtNtCs7KHHAE1sAde_5serde2de11Deserialize11deserializeNtB3_14___FieldVisitorNtBX_7Visitor11visit_bytespEB8_
FN:123,_RINvXs_NvXNvCsd5ZQOKN1kMZ_7app_fmm1__NtBa_17CreatePostRequestNtNtCs7KHHAE1sAde_5serde2de11Deserialize11deserializeNtB5_7___FieldBX_11deserializepEBa_
FN:123,_RNvXs0_NvXNvCsd5ZQOKN1kMZ_7app_fmm1__NtBa_17CreatePostRequestNtNtCs7KHHAE1sAde_5serde2de11Deserialize11deserializeNtB5_9___VisitorNtBZ_7Visitor9expecting
FN:123,_RINvXs0_NvXNvCsd5ZQOKN1kMZ_7app_fmm1__NtBb_17CreatePostRequestNtNtCs7KHHAE1sAde_5serde2de11Deserialize11deserializeNtB6_9___VisitorNtB10_7Visitor9visit_seqpEBb_
FN:123,_RINvXs0_NvXNvCsd5ZQOKN1kMZ_7app_fmm1__NtBb_17CreatePostRequestNtNtCs7KHHAE1sAde_5serde2de11Deserialize11deserializeNtB6_9___VisitorNtB10_7Visitor9visit_mappEBb_
FN:136,_RNvXs3_Csd5ZQOKN1kMZ_7app_fmmNtB5_6createNtNtCshod4NlCuhm8_9actix_web7service18HttpServiceFactory8register
FN:129,_RNvNvXs3_Csd5ZQOKN1kMZ_7app_fmmNtB7_6createNtNtCshod4NlCuhm8_9actix_web7service18HttpServiceFactory8register6create
FN:129,_RNCNvNvXs3_Csd5ZQOKN1kMZ_7app_fmmNtB9_6createNtNtCshod4NlCuhm8_9actix_web7service18HttpServiceFactory8register6create0B9_
FN:129,_RNCNCNCNvNvXs3_Csd5ZQOKN1kMZ_7app_fmmNtBd_6createNtNtCshod4NlCuhm8_9actix_web7service18HttpServiceFactory8register6create000Bd_
FN:151,_RNCNCNCNCNvNvXs3_Csd5ZQOKN1kMZ_7app_fmmNtBf_6createNtNtCshod4NlCuhm8_9actix_web7service18HttpServiceFactory8register6create0000Bf_
FN:153,_RNCNCNCNCNCNvNvXs3_Csd5ZQOKN1kMZ_7app_fmmNtBh_6createNtNtCshod4NlCuhm8_9actix_web7service18HttpServiceFactory8register6create00000Bh_
FN:129,_RNCNCNCNvNvXs3_Csd5ZQOKN1kMZ_7app_fmmNtBd_6createNtNtCshod4NlCuhm8_9actix_web7service18HttpServiceFactory8register6create00s_0Bd_
FN:129,_RNCNCNCNvNvXs3_Csd5ZQOKN1kMZ_7app_fmmNtBd_6createNtNtCshod4NlCuhm8_9actix_web7service18HttpServiceFactory8register6create00s0_0Bd_
FN:163,_RNvCsd5ZQOKN1kMZ_7app_fmm9not_found
FN:163,_RNCNvCsd5ZQOKN1kMZ_7app_fmm9not_found0B3_
FN:169,_RNvCsd5ZQOKN1kMZ_7app_fmm4init
FNDA:0,_RNvCsd5ZQOKN1kMZ_7app_fmm3foo
FNDA:0,_RNCNvCsd5ZQOKN1kMZ_7app_fmm3foo0B3_
FNDA:0,_RNCNCNvCsd5ZQOKN1kMZ_7app_fmm3foo00B5_
FNDA:0,_RNCNCNCNvCsd5ZQOKN1kMZ_7app_fmm3foo000B7_
FNDA:0,_RNCNCNCNvCsd5ZQOKN1kMZ_7app_fmm3foo00s_0B7_
FNDA:0,_RNvCsd5ZQOKN1kMZ_7app_fmm4main
FNDA:0,_RNCNvCsd5ZQOKN1kMZ_7app_fmm4main0B3_
FNDA:0,_RNCNCNvCsd5ZQOKN1kMZ_7app_fmm4main00B5_
FNDA:0,_RNCNCNCNvCsd5ZQOKN1kMZ_7app_fmm4main000B7_
FNDA:0,_RNCNCNCNCNvCsd5ZQOKN1kMZ_7app_fmm4main0000B9_
FNDA:0,_RNvXs0_Csd5ZQOKN1kMZ_7app_fmmNtB5_5helloNtNtCshod4NlCuhm8_9actix_web7service18HttpServiceFactory8register
FNDA:0,_RNvNvXs0_Csd5ZQOKN1kMZ_7app_fmmNtB7_5helloNtNtCshod4NlCuhm8_9actix_web7service18HttpServiceFactory8register5hello
FNDA:0,_RNCNvNvXs0_Csd5ZQOKN1kMZ_7app_fmmNtB9_5helloNtNtCshod4NlCuhm8_9actix_web7service18HttpServiceFactory8register5hello0B9_
FNDA:0,_RNvXNvXNvCsd5ZQOKN1kMZ_7app_fmm1__NtB7_17CreatePostRequestNtNtCs7KHHAE1sAde_5serde2de11Deserialize11deserializeNtB2_14___FieldVisitorNtBW_7Visitor9expecting
FNDA:0,_RINvXNvXNvCsd5ZQOKN1kMZ_7app_fmm1__NtB8_17CreatePostRequestNtNtCs7KHHAE1sAde_5serde2de11Deserialize11deserializeNtB3_14___FieldVisitorNtBX_7Visitor9visit_u64pEB8_
FNDA:0,_RINvXNvXNvCsd5ZQOKN1kMZ_7app_fmm1__NtB8_17CreatePostRequestNtNtCs7KHHAE1sAde_5serde2de11Deserialize11deserializeNtB3_14___FieldVisitorNtBX_7Visitor9visit_strpEB8_
FNDA:0,_RINvXNvXNvCsd5ZQOKN1kMZ_7app_fmm1__NtB8_17CreatePostRequestNtNtCs7KHHAE1sAde_5serde2de11Deserialize11deserializeNtB3_14___FieldVisitorNtBX_7Visitor11visit_bytespEB8_
FNDA:0,_RINvXs_NvXNvCsd5ZQOKN1kMZ_7app_fmm1__NtBa_17CreatePostRequestNtNtCs7KHHAE1sAde_5serde2de11Deserialize11deserializeNtB5_7___FieldBX_11deserializepEBa_
FNDA:0,_RNvXs0_NvXNvCsd5ZQOKN1kMZ_7app_fmm1__NtBa_17CreatePostRequestNtNtCs7KHHAE1sAde_5serde2de11Deserialize11deserializeNtB5_9___VisitorNtBZ_7Visitor9expecting
FNDA:0,_RINvXs0_NvXNvCsd5ZQOKN1kMZ_7app_fmm1__NtBb_17CreatePostRequestNtNtCs7KHHAE1sAde_5serde2de11Deserialize11deserializeNtB6_9___VisitorNtB10_7Visitor9visit_seqpEBb_
FNDA:0,_RINvXs0_NvXNvCsd5ZQOKN1kMZ_7app_fmm1__NtBb_17CreatePostRequestNtNtCs7KHHAE1sAde_5serde2de11Deserialize11deserializeNtB6_9___VisitorNtB10_7Visitor9visit_mappEBb_
FNDA:0,_RNvXs3_Csd5ZQOKN1kMZ_7app_fmmNtB5_6createNtNtCshod4NlCuhm8_9actix_web7service18HttpServiceFactory8register
FNDA:0,_RNvNvXs3_Csd5ZQOKN1kMZ_7app_fmmNtB7_6createNtNtCshod4NlCuhm8_9actix_web7service18HttpServiceFactory8register6create
FNDA:0,_RNCNvNvXs3_Csd5ZQOKN1kMZ_7app_fmmNtB9_6createNtNtCshod4NlCuhm8_9actix_web7service18HttpServiceFactory8register6create0B9_
FNDA:0,_RNCNCNCNvNvXs3_Csd5ZQOKN1kMZ_7app_fmmNtBd_6createNtNtCshod4NlCuhm8_9actix_web7service18HttpServiceFactory8register6create000Bd_
FNDA:0,_RNCNCNCNCNvNvXs3_Csd5ZQOKN1kMZ_7app_fmmNtBf_6createNtNtCshod4NlCuhm8_9actix_web7service18HttpServiceFactory8register6create0000Bf_
FNDA:0,_RNCNCNCNCNCNvNvXs3_Csd5ZQOKN1kMZ_7app_fmmNtBh_6createNtNtCshod4NlCuhm8_9actix_web7service18HttpServiceFactory8register6create00000Bh_
FNDA:0,_RNCNCNCNvNvXs3_Csd5ZQOKN1kMZ_7app_fmmNtBd_6createNtNtCshod4NlCuhm8_9actix_web7service18HttpServiceFactory8register6create00s_0Bd_
FNDA:0,_RNCNCNCNvNvXs3_Csd5ZQOKN1kMZ_7app_fmmNtBd_6createNtNtCshod4NlCuhm8_9actix_web7service18HttpServiceFactory8register6create00s0_0Bd_
FNDA:0,_RNvCsd5ZQOKN1kMZ_7app_fmm9not_found
FNDA:0,_RNCNvCsd5ZQOKN1kMZ_7app_fmm9not_found0B3_
FNDA:0,_RNvCsd5ZQOKN1kMZ_7app_fmm4init
FNF:19
FNH:0
DA:32,0
DA:34,0
DA:35,0
DA:36,0
DA:37,0
DA:38,0
DA:39,0
DA:41,0
DA:44,0
DA:86,0
DA:87,0
DA:88,0
DA:89,0
DA:90,0
DA:91,0
DA:92,0
DA:93,0
DA:94,0
DA:95,0
DA:96,0
DA:97,0
DA:98,0
DA:99,0
DA:100,0
DA:101,0
DA:102,0
DA:103,0
DA:104,0
DA:105,0
DA:106,0
DA:107,0
DA:108,0
DA:118,0
DA:119,0
DA:120,0
DA:121,0
DA:123,0
DA:129,0
DA:136,0
DA:151,0
DA:152,0
DA:153,0
DA:154,0
DA:155,0
DA:156,0
DA:157,0
DA:163,0
DA:164,0
DA:165,0
DA:166,0
DA:167,0
DA:169,0
DA:170,0
DA:171,0
DA:172,0
DA:173,0
BRF:0
BRH:0
LF:63
LH:0
end_of_record